target datalayout = "e-m:e-p270:32:32-p271:32:32-p272:64:64-i64:64-i128:128-f80:128-n8:16:32:64-S128"
target triple = "x86_64-pc-linux-gnu"

%struct.OPTARGS = type { i32, i32, i32, i32, ptr, ptr, ptr, ptr, ptr, i32, i32, ptr, [21 x i8], [256 x ptr], ptr, ptr, ptr, ptr }

; Function Attrs: mustprogress nounwind uwtable
define internal noundef i32 @_ZL11opt_is_flagP7OPTARGSi(ptr noundef %0, i32 noundef %1) #0 {
  %3 = alloca i32, align 4
  %4 = alloca ptr, align 8
  %5 = alloca i32, align 4
  store ptr %0, ptr %4, align 8
  store i32 %1, ptr %5, align 4
  %6 = load ptr, ptr %4, align 8
  %7 = getelementptr inbounds %struct.OPTARGS, ptr %6, i32 0, i32 13
  %8 = load i32, ptr %5, align 4
  %9 = sext i32 %8 to i64
  %10 = getelementptr inbounds [256 x ptr], ptr %7, i64 0, i64 %9
  %11 = load ptr, ptr %10, align 8
  %12 = load ptr, ptr %4, align 8
  %13 = getelementptr inbounds %struct.OPTARGS, ptr %12, i32 0, i32 12
  %14 = getelementptr inbounds [21 x i8], ptr %13, i64 0, i64 0
  %15 = icmp ult ptr %11, %14
  br i1 %15, label %16, label %17

16:                                               ; preds = %2
  store i32 0, ptr %3, align 4
  br label %31

17:                                               ; preds = %2
  %18 = load ptr, ptr %4, align 8
  %19 = getelementptr inbounds %struct.OPTARGS, ptr %18, i32 0, i32 13
  %20 = load i32, ptr %5, align 4
  %21 = sext i32 %20 to i64
  %22 = getelementptr inbounds [256 x ptr], ptr %19, i64 0, i64 %21
  %23 = load ptr, ptr %22, align 8
  %24 = load ptr, ptr %4, align 8
  %25 = getelementptr inbounds %struct.OPTARGS, ptr %24, i32 0, i32 12
  %26 = getelementptr inbounds [21 x i8], ptr %25, i64 0, i64 0
  %27 = getelementptr inbounds i8, ptr %26, i64 20
  %28 = icmp ugt ptr %23, %27
  br i1 %28, label %29, label %30

29:                                               ; preds = %17
  store i32 0, ptr %3, align 4
  br label %31

30:                                               ; preds = %17
  store i32 1, ptr %3, align 4
  br label %31

31:                                               ; preds = %30, %29, %16
  %32 = load i32, ptr %3, align 4
  ret i32 %32
}

; Function Attrs: mustprogress uwtable
define hidden noundef i32 @_Z9opt_givenP7OPTARGSPKc(ptr noundef %0, ptr noundef %1) #1 {
  %3 = alloca i32, align 4
  %4 = alloca ptr, align 8
  %5 = alloca ptr, align 8
  %6 = alloca i32, align 4
  store ptr %0, ptr %4, align 8
  store ptr %1, ptr %5, align 8
  %7 = load ptr, ptr %4, align 8
  %8 = load ptr, ptr %5, align 8
  %9 = call noundef i32 @_ZL11opt_ordinalP7OPTARGSPKc(ptr noundef %7, ptr noundef %8)
  store i32 %9, ptr %6, align 4
  %10 = load i32, ptr %6, align 4
  %11 = icmp eq i32 0, %10
  br i1 %11, label %12, label %13

12:                                               ; preds = %2
  store i32 0, ptr %3, align 4
  br label %46

13:                                               ; preds = %2
  %14 = load ptr, ptr %4, align 8
  %15 = load i32, ptr %6, align 4
  %16 = call noundef i32 @_ZL11opt_is_flagP7OPTARGSi(ptr noundef %14, i32 noundef %15)
  %17 = icmp ne i32 %16, 0
  br i1 %17, label %18, label %32

18:                                               ; preds = %13
  %19 = load ptr, ptr %4, align 8
  %20 = getelementptr inbounds %struct.OPTARGS, ptr %19, i32 0, i32 13
  %21 = load i32, ptr %6, align 4
  %22 = sext i32 %21 to i64
  %23 = getelementptr inbounds [256 x ptr], ptr %20, i64 0, i64 %22
  %24 = load ptr, ptr %23, align 8
  %25 = load ptr, ptr %4, align 8
  %26 = getelementptr inbounds %struct.OPTARGS, ptr %25, i32 0, i32 12
  %27 = getelementptr inbounds [21 x i8], ptr %26, i64 0, i64 0
  %28 = ptrtoint ptr %24 to i64
  %29 = ptrtoint ptr %27 to i64
  %30 = sub i64 %28, %29
  %31 = trunc i64 %30 to i32
  store i32 %31, ptr %3, align 4
  br label %46

32:                                               ; preds = %13
  %33 = load ptr, ptr %4, align 8
  %34 = getelementptr inbounds %struct.OPTARGS, ptr %33, i32 0, i32 4
  %35 = load ptr, ptr %34, align 8
  %36 = getelementptr inbounds ptr, ptr %35, i64 0
  %37 = load ptr, ptr %36, align 8
  %38 = load ptr, ptr %4, align 8
  %39 = getelementptr inbounds %struct.OPTARGS, ptr %38, i32 0, i32 13
  %40 = load i32, ptr %6, align 4
  %41 = sext i32 %40 to i64
  %42 = getelementptr inbounds [256 x ptr], ptr %39, i64 0, i64 %41
  %43 = load ptr, ptr %42, align 8
  %44 = icmp ne ptr %37, %43
  %45 = zext i1 %44 to i32
  store i32 %45, ptr %3, align 4
  br label %46

46:                                               ; preds = %32, %18, %12
  %47 = load i32, ptr %3, align 4
  ret i32 %47
}