; Function Attrs: mustprogress nofree nounwind willreturn memory(read, inaccessiblemem: none) uwtable
define hidden noundef i32 @_Z9opt_givenP7OPTARGSPKc(ptr noundef %0, ptr noundef %1) local_unnamed_addr #4 {
  %3 = tail call fastcc noundef i32 @_ZL11opt_ordinalP7OPTARGSPKc(ptr noundef %0, ptr noundef %1)
  %4 = icmp eq i32 %3, 0
  br i1 %4, label %25, label %5

5:                                                ; preds = %2
  %6 = getelementptr inbounds i8, ptr %0, i64 96
  %7 = sext i32 %3 to i64
  %8 = getelementptr inbounds [256 x ptr], ptr %6, i64 0, i64 %7
  %9 = load ptr, ptr %8, align 8
  %10 = getelementptr inbounds i8, ptr %0, i64 72
  %11 = icmp ult ptr %9, %10
  %12 = getelementptr inbounds i8, ptr %0, i64 92
  %13 = icmp ugt ptr %9, %12
  %narrow.i.not = select i1 %11, i1 true, i1 %13
  br i1 %narrow.i.not, label %19, label %14

14:                                               ; preds = %5
  %15 = ptrtoint ptr %9 to i64
  %16 = ptrtoint ptr %10 to i64
  %17 = sub i64 %15, %16
  %18 = trunc i64 %17 to i32
  br label %25

19:                                               ; preds = %5
  %20 = getelementptr inbounds i8, ptr %0, i64 16
  %21 = load ptr, ptr %20, align 8
  %22 = load ptr, ptr %21, align 8
  %23 = icmp ne ptr %22, %9
  %24 = zext i1 %23 to i32
  br label %25

25:                                               ; preds = %2, %19, %14
  %.0 = phi i32 [ %18, %14 ], [ %24, %19 ], [ 0, %2 ]
  ret i32 %.0
}